target datalayout = "e-m:e-p270:32:32-p271:32:32-p272:64:64-i64:64-i128:128-f80:128-n8:16:32:64-S128"
target triple = "x86_64-pc-linux-gnu"

%struct.Type_ = type { i32, ptr, ptr, ptr, %union.anon.86, ptr, ptr, %union.anon.88 }
%union.anon.86 = type { ptr }
%union.anon.88 = type { %struct.TypeFunction }
%struct.TypeFunction = type { ptr, ptr, ptr }
%struct.TypeArray = type { ptr, i32 }

; Function Attrs: nounwind uwtable
define internal ptr @llvm_type_from_array(ptr noundef %0, ptr noundef %1) #0 {
  %3 = alloca ptr, align 8
  %4 = alloca ptr, align 8
  %5 = alloca ptr, align 8
  store ptr %0, ptr %4, align 8
  store ptr %1, ptr %5, align 8
  %6 = load ptr, ptr %5, align 8
  %7 = getelementptr inbounds %struct.Type_, ptr %6, i32 0, i32 1
  %8 = load ptr, ptr %7, align 8
  %9 = load ptr, ptr %5, align 8
  %10 = icmp ne ptr %8, %9
  br i1 %10, label %11, label %19

11:                                               ; preds = %2
  %12 = load ptr, ptr %4, align 8
  %13 = load ptr, ptr %5, align 8
  %14 = getelementptr inbounds %struct.Type_, ptr %13, i32 0, i32 1
  %15 = load ptr, ptr %14, align 8
  %16 = call ptr @llvm_get_type(ptr noundef %12, ptr noundef %15)
  %17 = load ptr, ptr %5, align 8
  %18 = getelementptr inbounds %struct.Type_, ptr %17, i32 0, i32 4
  store ptr %16, ptr %18, align 8
  store ptr %16, ptr %3, align 8
  br label %33

19:                                               ; preds = %2
  %20 = load ptr, ptr %4, align 8
  %21 = load ptr, ptr %5, align 8
  %22 = getelementptr inbounds %struct.Type_, ptr %21, i32 0, i32 7
  %23 = getelementptr inbounds %struct.TypeArray, ptr %22, i32 0, i32 0
  %24 = load ptr, ptr %23, align 8
  %25 = call ptr @llvm_get_type(ptr noundef %20, ptr noundef %24)
  %26 = load ptr, ptr %5, align 8
  %27 = getelementptr inbounds %struct.Type_, ptr %26, i32 0, i32 7
  %28 = getelementptr inbounds %struct.TypeArray, ptr %27, i32 0, i32 1
  %29 = load i32, ptr %28, align 8
  %30 = call ptr @LLVMArrayType(ptr noundef %25, i32 noundef %29)
  %31 = load ptr, ptr %5, align 8
  %32 = getelementptr inbounds %struct.Type_, ptr %31, i32 0, i32 4
  store ptr %30, ptr %32, align 8
  store ptr %30, ptr %3, align 8
  br label %33

33:                                               ; preds = %19, %11
  %34 = load ptr, ptr %3, align 8
  ret ptr %34
}