; Function Attrs: nounwind uwtable
define internal fastcc ptr @llvm_type_from_array(ptr noundef %0, ptr noundef %1) unnamed_addr #0 {
  %3 = getelementptr inbounds i8, ptr %1, i64 8
  %4 = load ptr, ptr %3, align 8
  %.not = icmp eq ptr %4, %1
  br i1 %.not, label %7, label %5

5:                                                ; preds = %2
  %6 = tail call ptr @llvm_get_type(ptr noundef %0, ptr noundef %4)
  br label %14

7:                                                ; preds = %2
  %8 = getelementptr inbounds i8, ptr %1, i64 56
  %9 = load ptr, ptr %8, align 8
  %10 = tail call ptr @llvm_get_type(ptr noundef %0, ptr noundef %9)
  %11 = getelementptr inbounds i8, ptr %1, i64 64
  %12 = load i32, ptr %11, align 8
  %13 = tail call ptr @LLVMArrayType(ptr noundef %10, i32 noundef %12) #6
  br label %14

14:                                               ; preds = %7, %5
  %.sink = phi ptr [ %13, %7 ], [ %6, %5 ]
  %15 = getelementptr inbounds i8, ptr %1, i64 32
  store ptr %.sink, ptr %15, align 8
  ret ptr %.sink
}